target datalayout = "e-m:e-p270:32:32-p271:32:32-p272:64:64-i64:64-i128:128-f80:128-n8:16:32:64-S128"
target triple = "x86_64-unknown-linux-gnu"

%"class.folly::Range" = type { ptr, ptr }
%"class.facebook::velox::functions::JsonPathTokenizer" = type { i64, %"class.folly::Range" }

; Function Attrs: mustprogress nounwind uwtable
define linkonce_odr noundef nonnull align 1 dereferenceable(1) ptr @_ZN5folly5RangeIPKcEixEm(ptr noundef nonnull align 8 dereferenceable(16) %this, i64 noundef %i) #1 comdat align 2 {
entry:
  %this.addr = alloca ptr, align 8
  %i.addr = alloca i64, align 8
  store ptr %this, ptr %this.addr, align 8
  store i64 %i, ptr %i.addr, align 8
  %this1 = load ptr, ptr %this.addr, align 8
  %b_ = getelementptr inbounds %"class.folly::Range", ptr %this1, i32 0, i32 0
  %0 = load ptr, ptr %b_, align 8
  %1 = load i64, ptr %i.addr, align 8
  %arrayidx = getelementptr inbounds i8, ptr %0, i64 %1
  ret ptr %arrayidx
}

; Function Attrs: mustprogress nounwind uwtable
define linkonce_odr noundef i64 @_ZNK5folly5RangeIPKcE4sizeEv(ptr noundef nonnull align 8 dereferenceable(16) %this) #1 comdat align 2 {
entry:
  %this.addr = alloca ptr, align 8
  store ptr %this, ptr %this.addr, align 8
  %this1 = load ptr, ptr %this.addr, align 8
  %e_ = getelementptr inbounds %"class.folly::Range", ptr %this1, i32 0, i32 1
  %0 = load ptr, ptr %e_, align 8
  %b_ = getelementptr inbounds %"class.folly::Range", ptr %this1, i32 0, i32 0
  %1 = load ptr, ptr %b_, align 8
  %sub.ptr.lhs.cast = ptrtoint ptr %0 to i64
  %sub.ptr.rhs.cast = ptrtoint ptr %1 to i64
  %sub.ptr.sub = sub i64 %sub.ptr.lhs.cast, %sub.ptr.rhs.cast
  ret i64 %sub.ptr.sub
}

; Function Attrs: mustprogress uwtable
define noundef zeroext i1 @_ZN8facebook5velox9functions17JsonPathTokenizer5matchEc(ptr noundef nonnull align 8 dereferenceable(24) %this, i8 noundef signext %expected) #0 align 2 {
entry:
  %retval = alloca i1, align 1
  %this.addr = alloca ptr, align 8
  %expected.addr = alloca i8, align 1
  store ptr %this, ptr %this.addr, align 8
  store i8 %expected, ptr %expected.addr, align 1
  %this1 = load ptr, ptr %this.addr, align 8
  %index_ = getelementptr inbounds %"class.facebook::velox::functions::JsonPathTokenizer", ptr %this1, i32 0, i32 0
  %0 = load i64, ptr %index_, align 8
  %path_ = getelementptr inbounds %"class.facebook::velox::functions::JsonPathTokenizer", ptr %this1, i32 0, i32 1
  %call = call noundef i64 @_ZNK5folly5RangeIPKcE4sizeEv(ptr noundef nonnull align 8 dereferenceable(16) %path_)
  %cmp = icmp ult i64 %0, %call
  br i1 %cmp, label %land.lhs.true, label %if.end

land.lhs.true:                                    ; preds = %entry
  %path_2 = getelementptr inbounds %"class.facebook::velox::functions::JsonPathTokenizer", ptr %this1, i32 0, i32 1
  %index_3 = getelementptr inbounds %"class.facebook::velox::functions::JsonPathTokenizer", ptr %this1, i32 0, i32 0
  %1 = load i64, ptr %index_3, align 8
  %call4 = call noundef nonnull align 1 dereferenceable(1) ptr @_ZN5folly5RangeIPKcEixEm(ptr noundef nonnull align 8 dereferenceable(16) %path_2, i64 noundef %1)
  %2 = load i8, ptr %call4, align 1
  %conv = sext i8 %2 to i32
  %3 = load i8, ptr %expected.addr, align 1
  %conv5 = sext i8 %3 to i32
  %cmp6 = icmp eq i32 %conv, %conv5
  br i1 %cmp6, label %if.then, label %if.end

if.then:                                          ; preds = %land.lhs.true
  %index_7 = getelementptr inbounds %"class.facebook::velox::functions::JsonPathTokenizer", ptr %this1, i32 0, i32 0
  %4 = load i64, ptr %index_7, align 8
  %inc = add i64 %4, 1
  store i64 %inc, ptr %index_7, align 8
  store i1 true, ptr %retval, align 1
  br label %return

if.end:                                           ; preds = %land.lhs.true, %entry
  store i1 false, ptr %retval, align 1
  br label %return

return:                                           ; preds = %if.end, %if.then
  %5 = load i1, ptr %retval, align 1
  ret i1 %5
}