; Function Attrs: mustprogress nofree norecurse nosync nounwind willreturn memory(read, argmem: readwrite, inaccessiblemem: none) uwtable
define noundef zeroext i1 @_ZN8facebook5velox9functions17JsonPathTokenizer5matchEc(ptr nocapture noundef nonnull align 8 dereferenceable(24) %this, i8 noundef signext %expected) local_unnamed_addr #3 align 2 {
entry:
  %0 = load i64, ptr %this, align 8
  %path_ = getelementptr inbounds i8, ptr %this, i64 8
  %e_.i = getelementptr inbounds i8, ptr %this, i64 16
  %1 = load ptr, ptr %e_.i, align 8
  %2 = load ptr, ptr %path_, align 8
  %sub.ptr.lhs.cast.i = ptrtoint ptr %1 to i64
  %sub.ptr.rhs.cast.i = ptrtoint ptr %2 to i64
  %sub.ptr.sub.i = sub i64 %sub.ptr.lhs.cast.i, %sub.ptr.rhs.cast.i
  %cmp = icmp ult i64 %0, %sub.ptr.sub.i
  br i1 %cmp, label %land.lhs.true, label %return

land.lhs.true:                                    ; preds = %entry
  %arrayidx.i = getelementptr inbounds i8, ptr %2, i64 %0
  %3 = load i8, ptr %arrayidx.i, align 1
  %cmp6 = icmp eq i8 %3, %expected
  br i1 %cmp6, label %if.then, label %return

if.then:                                          ; preds = %land.lhs.true
  %inc = add nuw i64 %0, 1
  store i64 %inc, ptr %this, align 8
  br label %return

return:                                           ; preds = %entry, %land.lhs.true, %if.then
  %retval.0 = phi i1 [ true, %if.then ], [ false, %land.lhs.true ], [ false, %entry ]
  ret i1 %retval.0
}